; Function Attrs: nounwind uwtable
define dso_local i32 @archive_read_disk_current_filesystem(ptr noundef %0) local_unnamed_addr #0 {
  %2 = tail call i32 @__archive_check_magic(ptr noundef %0, i32 noundef 195932357, i32 noundef 4, ptr noundef nonnull @.str.17) #17
  %3 = icmp eq i32 %2, -30
  br i1 %3, label %9, label %4

4:                                                ; preds = %1
  %5 = getelementptr inbounds nuw i8, ptr %0, i64 160
  %6 = load ptr, ptr %5, align 8
  %7 = getelementptr inbounds nuw i8, ptr %6, i64 508
  %8 = load i32, ptr %7, align 4
  br label %9

9:                                                ; preds = %1, %4
  %.0 = phi i32 [ %8, %4 ], [ -30, %1 ]
  ret i32 %.0
}